; Function Attrs: mustprogress nofree nounwind willreturn memory(readwrite, argmem: read, inaccessiblemem: read) uwtable
define internal noundef i32 @OnUpdateErrorReporting(ptr nocapture readnone %0, ptr noundef readonly %1, ptr nocapture readnone %2, ptr nocapture readnone %3, ptr nocapture readnone %4, i32 %5) #26 {
  %.not = icmp eq ptr %1, null
  br i1 %.not, label %10, label %7

7:                                                ; preds = %6
  %8 = getelementptr inbounds i8, ptr %1, i64 24
  %9 = tail call i32 @atoi(ptr nocapture noundef nonnull %8) #33
  br label %10

10:                                               ; preds = %6, %7
  %storemerge = phi i32 [ %9, %7 ], [ 32767, %6 ]
  store i32 %storemerge, ptr getelementptr inbounds (%struct._zend_executor_globals, ptr @executor_globals, i64 0, i32 8), align 8
  ret i32 0
}